target datalayout = "e-m:e-p270:32:32-p271:32:32-p272:64:64-i64:64-i128:128-f80:128-n8:16:32:64-S128"
target triple = "x86_64-pc-linux-gnu"

%struct.CatalogId = type { i32, i32 }
%struct.Archive = type { ptr, ptr, i32, ptr, i32, i8, i32, i32, i32, ptr, i32, i8, ptr, ptr, i8, i32, ptr }
%struct._dumpableObject = type { i32, %struct.CatalogId, i32, ptr, ptr, i32, i32, i32, i8, i8, ptr, i32, i32 }
%struct.PQExpBufferData = type { ptr, i64, i64 }
%struct._tableInfo = type { %struct._dumpableObject, %struct._dumpableAcl, ptr, i8, i8, i8, i8, ptr, ptr, ptr, ptr, i8, i8, i8, i8, i8, i8, i8, i32, i32, i32, i32, i32, i32, i32, i32, i32, i32, i32, i8, i32, i32, i8, i8, i8, i8, i8, i32, ptr, i32, ptr, ptr, ptr, ptr, ptr, ptr, ptr, ptr, ptr, ptr, ptr, ptr, ptr, ptr, ptr, ptr, ptr, ptr, ptr, ptr, ptr, i8, ptr, i32, ptr, ptr, i32, ptr }
%struct._dumpableAcl = type { ptr, ptr, i8, ptr }

@.str.516 = private unnamed_addr constant [8 x i8] c"classid\00", align 1
@.str.517 = private unnamed_addr constant [6 x i8] c"objid\00", align 1
@.str.518 = private unnamed_addr constant [9 x i8] c"refobjid\00", align 1

; Function Attrs: nounwind uwtable
define internal void @buildMatViewRefreshDependencies(ptr noundef %0) #0 {
  %2 = alloca ptr, align 8
  %3 = alloca ptr, align 8
  %4 = alloca ptr, align 8
  %5 = alloca i32, align 4
  %6 = alloca i32, align 4
  %7 = alloca i32, align 4
  %8 = alloca i32, align 4
  %9 = alloca i32, align 4
  %10 = alloca i32, align 4
  %11 = alloca %struct.CatalogId, align 4
  %12 = alloca %struct.CatalogId, align 4
  %13 = alloca ptr, align 8
  %14 = alloca ptr, align 8
  %15 = alloca ptr, align 8
  %16 = alloca ptr, align 8
  store ptr %0, ptr %2, align 8
  call void @llvm.lifetime.start.p0(i64 8, ptr %3) #10
  call void @llvm.lifetime.start.p0(i64 8, ptr %4) #10
  call void @llvm.lifetime.start.p0(i64 4, ptr %5) #10
  call void @llvm.lifetime.start.p0(i64 4, ptr %6) #10
  call void @llvm.lifetime.start.p0(i64 4, ptr %7) #10
  call void @llvm.lifetime.start.p0(i64 4, ptr %8) #10
  call void @llvm.lifetime.start.p0(i64 4, ptr %9) #10
  %17 = load ptr, ptr %2, align 8
  %18 = getelementptr inbounds nuw %struct.Archive, ptr %17, i32 0, i32 4
  %19 = load i32, ptr %18, align 8
  %20 = icmp slt i32 %19, 90300
  br i1 %20, label %21, label %22

21:                                               ; preds = %1
  store i32 1, ptr %10, align 4
  br label %116

22:                                               ; preds = %1
  %23 = call ptr @createPQExpBuffer()
  store ptr %23, ptr %3, align 8
  %24 = load ptr, ptr %3, align 8
  call void @appendPQExpBufferStr(ptr noundef %24, ptr noundef @.str.653)
  %25 = load ptr, ptr %2, align 8
  %26 = load ptr, ptr %3, align 8
  %27 = getelementptr inbounds nuw %struct.PQExpBufferData, ptr %26, i32 0, i32 0
  %28 = load ptr, ptr %27, align 8
  %29 = call ptr @ExecuteSqlQuery(ptr noundef %25, ptr noundef %28, i32 noundef 2)
  store ptr %29, ptr %4, align 8
  %30 = load ptr, ptr %4, align 8
  %31 = call i32 @PQntuples(ptr noundef %30)
  store i32 %31, ptr %5, align 4
  %32 = load ptr, ptr %4, align 8
  %33 = call i32 @PQfnumber(ptr noundef %32, ptr noundef @.str.516)
  store i32 %33, ptr %7, align 4
  %34 = load ptr, ptr %4, align 8
  %35 = call i32 @PQfnumber(ptr noundef %34, ptr noundef @.str.517)
  store i32 %35, ptr %8, align 4
  %36 = load ptr, ptr %4, align 8
  %37 = call i32 @PQfnumber(ptr noundef %36, ptr noundef @.str.518)
  store i32 %37, ptr %9, align 4
  store i32 0, ptr %6, align 4
  br label %38

38:                                               ; preds = %110, %22
  %39 = load i32, ptr %6, align 4
  %40 = load i32, ptr %5, align 4
  %41 = icmp slt i32 %39, %40
  br i1 %41, label %42, label %113

42:                                               ; preds = %38
  call void @llvm.lifetime.start.p0(i64 8, ptr %11) #10
  call void @llvm.lifetime.start.p0(i64 8, ptr %12) #10
  call void @llvm.lifetime.start.p0(i64 8, ptr %13) #10
  call void @llvm.lifetime.start.p0(i64 8, ptr %14) #10
  call void @llvm.lifetime.start.p0(i64 8, ptr %15) #10
  call void @llvm.lifetime.start.p0(i64 8, ptr %16) #10
  %43 = load ptr, ptr %4, align 8
  %44 = load i32, ptr %6, align 4
  %45 = load i32, ptr %7, align 4
  %46 = call ptr @PQgetvalue(ptr noundef %43, i32 noundef %44, i32 noundef %45)
  %47 = call i64 @strtoul(ptr noundef %46, ptr noundef null, i32 noundef 10) #10
  %48 = trunc i64 %47 to i32
  %49 = getelementptr inbounds nuw %struct.CatalogId, ptr %11, i32 0, i32 0
  store i32 %48, ptr %49, align 4
  %50 = load ptr, ptr %4, align 8
  %51 = load i32, ptr %6, align 4
  %52 = load i32, ptr %8, align 4
  %53 = call ptr @PQgetvalue(ptr noundef %50, i32 noundef %51, i32 noundef %52)
  %54 = call i64 @strtoul(ptr noundef %53, ptr noundef null, i32 noundef 10) #10
  %55 = trunc i64 %54 to i32
  %56 = getelementptr inbounds nuw %struct.CatalogId, ptr %11, i32 0, i32 1
  store i32 %55, ptr %56, align 4
  %57 = getelementptr inbounds nuw %struct.CatalogId, ptr %11, i32 0, i32 0
  %58 = load i32, ptr %57, align 4
  %59 = getelementptr inbounds nuw %struct.CatalogId, ptr %12, i32 0, i32 0
  store i32 %58, ptr %59, align 4
  %60 = load ptr, ptr %4, align 8
  %61 = load i32, ptr %6, align 4
  %62 = load i32, ptr %9, align 4
  %63 = call ptr @PQgetvalue(ptr noundef %60, i32 noundef %61, i32 noundef %62)
  %64 = call i64 @strtoul(ptr noundef %63, ptr noundef null, i32 noundef 10) #10
  %65 = trunc i64 %64 to i32
  %66 = getelementptr inbounds nuw %struct.CatalogId, ptr %12, i32 0, i32 1
  store i32 %65, ptr %66, align 4
  %67 = load i64, ptr %11, align 4
  %68 = call ptr @findObjectByCatalogId(i64 %67)
  store ptr %68, ptr %13, align 8
  %69 = load ptr, ptr %13, align 8
  %70 = icmp eq ptr %69, null
  br i1 %70, label %71, label %72

71:                                               ; preds = %42
  store i32 4, ptr %10, align 4
  br label %107

72:                                               ; preds = %42
  %73 = load ptr, ptr %13, align 8
  store ptr %73, ptr %15, align 8
  %74 = load ptr, ptr %15, align 8
  %75 = getelementptr inbounds nuw %struct._tableInfo, ptr %74, i32 0, i32 65
  %76 = load ptr, ptr %75, align 8
  store ptr %76, ptr %13, align 8
  %77 = load ptr, ptr %13, align 8
  %78 = icmp eq ptr %77, null
  br i1 %78, label %79, label %80

79:                                               ; preds = %72
  store i32 4, ptr %10, align 4
  br label %107

80:                                               ; preds = %72
  %81 = load i64, ptr %12, align 4
  %82 = call ptr @findObjectByCatalogId(i64 %81)
  store ptr %82, ptr %14, align 8
  %83 = load ptr, ptr %14, align 8
  %84 = icmp eq ptr %83, null
  br i1 %84, label %85, label %86

85:                                               ; preds = %80
  store i32 4, ptr %10, align 4
  br label %107

86:                                               ; preds = %80
  %87 = load ptr, ptr %14, align 8
  store ptr %87, ptr %16, align 8
  %88 = load ptr, ptr %16, align 8
  %89 = getelementptr inbounds nuw %struct._tableInfo, ptr %88, i32 0, i32 65
  %90 = load ptr, ptr %89, align 8
  store ptr %90, ptr %14, align 8
  %91 = load ptr, ptr %14, align 8
  %92 = icmp eq ptr %91, null
  br i1 %92, label %93, label %94

93:                                               ; preds = %86
  store i32 4, ptr %10, align 4
  br label %107

94:                                               ; preds = %86
  %95 = load ptr, ptr %13, align 8
  %96 = load ptr, ptr %14, align 8
  %97 = getelementptr inbounds nuw %struct._dumpableObject, ptr %96, i32 0, i32 2
  %98 = load i32, ptr %97, align 4
  call void @addObjectDependency(ptr noundef %95, i32 noundef %98)
  %99 = load ptr, ptr %16, align 8
  %100 = getelementptr inbounds nuw %struct._tableInfo, ptr %99, i32 0, i32 5
  %101 = load i8, ptr %100, align 2, !range !6, !noundef !7
  %102 = trunc i8 %101 to i1
  br i1 %102, label %106, label %103

103:                                              ; preds = %94
  %104 = load ptr, ptr %15, align 8
  %105 = getelementptr inbounds nuw %struct._tableInfo, ptr %104, i32 0, i32 5
  store i8 0, ptr %105, align 2
  br label %106

106:                                              ; preds = %103, %94
  store i32 0, ptr %10, align 4
  br label %107

107:                                              ; preds = %106, %93, %85, %79, %71
  call void @llvm.lifetime.end.p0(i64 8, ptr %16) #10
  call void @llvm.lifetime.end.p0(i64 8, ptr %15) #10
  call void @llvm.lifetime.end.p0(i64 8, ptr %14) #10
  call void @llvm.lifetime.end.p0(i64 8, ptr %13) #10
  call void @llvm.lifetime.end.p0(i64 8, ptr %12) #10
  call void @llvm.lifetime.end.p0(i64 8, ptr %11) #10
  %108 = load i32, ptr %10, align 4
  switch i32 %108, label %119 [
    i32 0, label %109
    i32 4, label %110
  ]

109:                                              ; preds = %107
  br label %110

110:                                              ; preds = %109, %107
  %111 = load i32, ptr %6, align 4
  %112 = add i32 %111, 1
  store i32 %112, ptr %6, align 4
  br label %38, !llvm.loop !20

113:                                              ; preds = %38
  %114 = load ptr, ptr %4, align 8
  call void @PQclear(ptr noundef %114)
  %115 = load ptr, ptr %3, align 8
  call void @destroyPQExpBuffer(ptr noundef %115)
  store i32 0, ptr %10, align 4
  br label %116

116:                                              ; preds = %113, %21
  call void @llvm.lifetime.end.p0(i64 4, ptr %9) #10
  call void @llvm.lifetime.end.p0(i64 4, ptr %8) #10
  call void @llvm.lifetime.end.p0(i64 4, ptr %7) #10
  call void @llvm.lifetime.end.p0(i64 4, ptr %6) #10
  call void @llvm.lifetime.end.p0(i64 4, ptr %5) #10
  call void @llvm.lifetime.end.p0(i64 8, ptr %4) #10
  call void @llvm.lifetime.end.p0(i64 8, ptr %3) #10
  %117 = load i32, ptr %10, align 4
  switch i32 %117, label %119 [
    i32 0, label %118
    i32 1, label %118
  ]

118:                                              ; preds = %116, %116
  ret void

119:                                              ; preds = %116, %107
  unreachable
}