; Function Attrs: nounwind uwtable
define internal fastcc void @buildMatViewRefreshDependencies(ptr noundef %0) unnamed_addr #5 {
  %2 = getelementptr inbounds nuw i8, ptr %0, i64 32
  %3 = load i32, ptr %2, align 8
  %4 = icmp slt i32 %3, 90300
  br i1 %4, label %43, label %5

5:                                                ; preds = %1
  %6 = tail call ptr @createPQExpBuffer() #14
  tail call void @appendPQExpBufferStr(ptr noundef %6, ptr noundef nonnull @.str.653) #14
  %7 = load ptr, ptr %6, align 8
  %8 = tail call ptr @ExecuteSqlQuery(ptr noundef nonnull %0, ptr noundef %7, i32 noundef 2) #14
  %9 = tail call i32 @PQntuples(ptr noundef %8) #14
  %10 = tail call i32 @PQfnumber(ptr noundef %8, ptr noundef nonnull @.str.516) #14
  %11 = tail call i32 @PQfnumber(ptr noundef %8, ptr noundef nonnull @.str.517) #14
  %12 = tail call i32 @PQfnumber(ptr noundef %8, ptr noundef nonnull @.str.518) #14
  %13 = icmp sgt i32 %9, 0
  br i1 %13, label %.lr.ph, label %._crit_edge

.lr.ph:                                           ; preds = %5, %41
  %.039 = phi i32 [ %42, %41 ], [ 0, %5 ]
  %14 = tail call ptr @PQgetvalue(ptr noundef %8, i32 noundef %.039, i32 noundef %10) #14
  %15 = tail call i64 @strtoul(ptr noundef captures(none) %14, ptr noundef null, i32 noundef 10) #14
  %16 = tail call ptr @PQgetvalue(ptr noundef %8, i32 noundef %.039, i32 noundef %11) #14
  %17 = tail call i64 @strtoul(ptr noundef captures(none) %16, ptr noundef null, i32 noundef 10) #14
  %18 = tail call ptr @PQgetvalue(ptr noundef %8, i32 noundef %.039, i32 noundef %12) #14
  %19 = tail call i64 @strtoul(ptr noundef captures(none) %18, ptr noundef null, i32 noundef 10) #14
  %.sroa.5.0.insert.ext = shl i64 %17, 32
  %.sroa.012.0.insert.ext = and i64 %15, 4294967295
  %.sroa.012.0.insert.insert = or disjoint i64 %.sroa.5.0.insert.ext, %.sroa.012.0.insert.ext
  %20 = tail call ptr @findObjectByCatalogId(i64 %.sroa.012.0.insert.insert) #14
  %21 = icmp eq ptr %20, null
  br i1 %21, label %41, label %22

22:                                               ; preds = %.lr.ph
  %23 = getelementptr inbounds nuw i8, ptr %20, i64 440
  %24 = load ptr, ptr %23, align 8
  %25 = icmp eq ptr %24, null
  br i1 %25, label %41, label %26

26:                                               ; preds = %22
  %.sroa.4.0.insert.ext = shl i64 %19, 32
  %.sroa.0.0.insert.insert = or disjoint i64 %.sroa.4.0.insert.ext, %.sroa.012.0.insert.ext
  %27 = tail call ptr @findObjectByCatalogId(i64 %.sroa.0.0.insert.insert) #14
  %28 = icmp eq ptr %27, null
  br i1 %28, label %41, label %29

29:                                               ; preds = %26
  %30 = getelementptr inbounds nuw i8, ptr %27, i64 440
  %31 = load ptr, ptr %30, align 8
  %32 = icmp eq ptr %31, null
  br i1 %32, label %41, label %33

33:                                               ; preds = %29
  %34 = getelementptr inbounds nuw i8, ptr %31, i64 12
  %35 = load i32, ptr %34, align 4
  tail call void @addObjectDependency(ptr noundef nonnull %24, i32 noundef %35) #14
  %36 = getelementptr inbounds nuw i8, ptr %27, i64 106
  %37 = load i8, ptr %36, align 2, !range !7, !noundef !8
  %38 = trunc nuw i8 %37 to i1
  br i1 %38, label %41, label %39

39:                                               ; preds = %33
  %40 = getelementptr inbounds nuw i8, ptr %20, i64 106
  store i8 0, ptr %40, align 2
  br label %41

41:                                               ; preds = %33, %39, %29, %26, %22, %.lr.ph
  %42 = add nuw nsw i32 %.039, 1
  %exitcond.not = icmp eq i32 %42, %9
  br i1 %exitcond.not, label %._crit_edge, label %.lr.ph, !llvm.loop !39

._crit_edge:                                      ; preds = %41, %5
  tail call void @PQclear(ptr noundef %8) #14
  tail call void @destroyPQExpBuffer(ptr noundef nonnull %6) #14
  br label %43

43:                                               ; preds = %1, %._crit_edge
  ret void
}